target datalayout = "e-m:e-p270:32:32-p271:32:32-p272:64:64-i64:64-i128:128-f80:128-n8:16:32:64-S128"
target triple = "x86_64-pc-linux-gnu"

%struct.backref_name_tag = type { ptr, i64 }

; Function Attrs: nounwind sspstrong uwtable
define internal i32 @match_inspect_name_iter(ptr noundef %0, ptr noundef %1, i32 noundef %2, ptr noundef %3, ptr noundef %4, ptr noundef %5) #0 {
  %7 = alloca ptr, align 8
  %8 = alloca ptr, align 8
  %9 = alloca i32, align 4
  %10 = alloca ptr, align 8
  %11 = alloca ptr, align 8
  %12 = alloca ptr, align 8
  %13 = alloca ptr, align 8
  %14 = alloca i32, align 4
  store ptr %0, ptr %7, align 8, !tbaa !13
  store ptr %1, ptr %8, align 8, !tbaa !13
  store i32 %2, ptr %9, align 4, !tbaa !16
  store ptr %3, ptr %10, align 8, !tbaa !30
  store ptr %4, ptr %11, align 8, !tbaa !53
  store ptr %5, ptr %12, align 8, !tbaa !7
  call void @llvm.lifetime.start.p0(i64 8, ptr %13) #28
  %15 = load ptr, ptr %12, align 8, !tbaa !7
  store ptr %15, ptr %13, align 8, !tbaa !117
  call void @llvm.lifetime.start.p0(i64 4, ptr %14) #28
  store i32 0, ptr %14, align 4, !tbaa !16
  br label %16

16:                                               ; preds = %45, %6
  %17 = load i32, ptr %14, align 4, !tbaa !16
  %18 = load i32, ptr %9, align 4, !tbaa !16
  %19 = icmp slt i32 %17, %18
  br i1 %19, label %20, label %48

20:                                               ; preds = %16
  %21 = load ptr, ptr %7, align 8, !tbaa !13
  %22 = load ptr, ptr %13, align 8, !tbaa !117
  %23 = load ptr, ptr %10, align 8, !tbaa !30
  %24 = load i32, ptr %14, align 4, !tbaa !16
  %25 = sext i32 %24 to i64
  %26 = getelementptr i32, ptr %23, i64 %25
  %27 = load i32, ptr %26, align 4, !tbaa !16
  %28 = sext i32 %27 to i64
  %29 = getelementptr %struct.backref_name_tag, ptr %22, i64 %28
  %30 = getelementptr inbounds nuw %struct.backref_name_tag, ptr %29, i32 0, i32 0
  store ptr %21, ptr %30, align 8, !tbaa !119
  %31 = load ptr, ptr %8, align 8, !tbaa !13
  %32 = load ptr, ptr %7, align 8, !tbaa !13
  %33 = ptrtoint ptr %31 to i64
  %34 = ptrtoint ptr %32 to i64
  %35 = sub i64 %33, %34
  %36 = load ptr, ptr %13, align 8, !tbaa !117
  %37 = load ptr, ptr %10, align 8, !tbaa !30
  %38 = load i32, ptr %14, align 4, !tbaa !16
  %39 = sext i32 %38 to i64
  %40 = getelementptr i32, ptr %37, i64 %39
  %41 = load i32, ptr %40, align 4, !tbaa !16
  %42 = sext i32 %41 to i64
  %43 = getelementptr %struct.backref_name_tag, ptr %36, i64 %42
  %44 = getelementptr inbounds nuw %struct.backref_name_tag, ptr %43, i32 0, i32 1
  store i64 %35, ptr %44, align 8, !tbaa !121
  br label %45

45:                                               ; preds = %20
  %46 = load i32, ptr %14, align 4, !tbaa !16
  %47 = add i32 %46, 1
  store i32 %47, ptr %14, align 4, !tbaa !16
  br label %16, !llvm.loop !179

48:                                               ; preds = %16
  call void @llvm.lifetime.end.p0(i64 4, ptr %14) #28
  call void @llvm.lifetime.end.p0(i64 8, ptr %13) #28
  ret i32 0
}