; Function Attrs: nofree norecurse nosync nounwind sspstrong memory(argmem: readwrite) uwtable
define internal noundef i32 @match_inspect_name_iter(ptr noundef %0, ptr noundef %1, i32 noundef %2, ptr noundef readonly captures(none) %3, ptr readnone captures(none) %4, ptr noundef writeonly captures(none) %5) #25 {
  %7 = icmp sgt i32 %2, 0
  br i1 %7, label %.lr.ph, label %._crit_edge

.lr.ph:                                           ; preds = %6
  %8 = ptrtoint ptr %1 to i64
  %9 = ptrtoint ptr %0 to i64
  %10 = sub i64 %8, %9
  %wide.trip.count = zext nneg i32 %2 to i64
  br label %11

11:                                               ; preds = %.lr.ph, %11
  %indvars.iv = phi i64 [ 0, %.lr.ph ], [ %indvars.iv.next, %11 ]
  %12 = getelementptr i32, ptr %3, i64 %indvars.iv
  %13 = load i32, ptr %12, align 4, !tbaa !27
  %14 = sext i32 %13 to i64
  %15 = getelementptr %struct.backref_name_tag, ptr %5, i64 %14
  store ptr %0, ptr %15, align 8, !tbaa !239
  %16 = getelementptr %struct.backref_name_tag, ptr %5, i64 %14, i32 1
  store i64 %10, ptr %16, align 8, !tbaa !241
  %indvars.iv.next = add nuw nsw i64 %indvars.iv, 1
  %exitcond.not = icmp eq i64 %indvars.iv.next, %wide.trip.count
  br i1 %exitcond.not, label %._crit_edge, label %11, !llvm.loop !309

._crit_edge:                                      ; preds = %11, %6
  ret i32 0
}